target datalayout = "e-m:e-p270:32:32-p271:32:32-p272:64:64-i64:64-i128:128-f80:128-n8:16:32:64-S128"
target triple = "x86_64-pc-linux-gnu"

%"class.llvm::StringMapImpl" = type { ptr, i32, i32, i32, i32 }
%"class.llvm::OffloadEntriesInfoManager" = type { ptr, i32, %"class.std::map", %"class.std::map.81", %"class.llvm::StringMap.86" }
%"class.std::map" = type { %"class.std::_Rb_tree" }
%"class.std::_Rb_tree" = type { %"struct.std::_Rb_tree<llvm::TargetRegionEntryInfo, std::pair<const llvm::TargetRegionEntryInfo, unsigned int>, std::_Select1st<std::pair<const llvm::TargetRegionEntryInfo, unsigned int>>, std::less<llvm::TargetRegionEntryInfo>>::_Rb_tree_impl" }
%"struct.std::_Rb_tree<llvm::TargetRegionEntryInfo, std::pair<const llvm::TargetRegionEntryInfo, unsigned int>, std::_Select1st<std::pair<const llvm::TargetRegionEntryInfo, unsigned int>>, std::less<llvm::TargetRegionEntryInfo>>::_Rb_tree_impl" = type { [8 x i8], %"struct.std::_Rb_tree_header" }
%"struct.std::_Rb_tree_header" = type { %"struct.std::_Rb_tree_node_base", i64 }
%"struct.std::_Rb_tree_node_base" = type { i32, ptr, ptr, ptr }
%"class.std::map.81" = type { %"class.std::_Rb_tree.82" }
%"class.std::_Rb_tree.82" = type { %"struct.std::_Rb_tree<llvm::TargetRegionEntryInfo, std::pair<const llvm::TargetRegionEntryInfo, llvm::OffloadEntriesInfoManager::OffloadEntryInfoTargetRegion>, std::_Select1st<std::pair<const llvm::TargetRegionEntryInfo, llvm::OffloadEntriesInfoManager::OffloadEntryInfoTargetRegion>>, std::less<llvm::TargetRegionEntryInfo>>::_Rb_tree_impl" }
%"struct.std::_Rb_tree<llvm::TargetRegionEntryInfo, std::pair<const llvm::TargetRegionEntryInfo, llvm::OffloadEntriesInfoManager::OffloadEntryInfoTargetRegion>, std::_Select1st<std::pair<const llvm::TargetRegionEntryInfo, llvm::OffloadEntriesInfoManager::OffloadEntryInfoTargetRegion>>, std::less<llvm::TargetRegionEntryInfo>>::_Rb_tree_impl" = type { [8 x i8], %"struct.std::_Rb_tree_header" }
%"class.llvm::StringMap.86" = type { %"class.llvm::StringMapImpl" }
%"class.std::__cxx11::basic_string" = type { %"struct.std::__cxx11::basic_string<char>::_Alloc_hider", i64, %union.anon.90 }
%"struct.std::__cxx11::basic_string<char>::_Alloc_hider" = type { ptr }
%union.anon.90 = type { i64, [8 x i8] }
%"class.llvm::WeakTrackingVH" = type { %"class.llvm::ValueHandleBase" }
%"class.llvm::ValueHandleBase" = type { %"class.llvm::PointerIntPair.279", ptr, ptr }
%"class.llvm::PointerIntPair.279" = type { %"struct.llvm::detail::PunnedPointer.280" }
%"struct.llvm::detail::PunnedPointer.280" = type { [8 x i8] }
%"class.llvm::function_ref.566" = type { ptr, i64 }
%"struct.llvm::TargetRegionEntryInfo" = type { %"class.std::__cxx11::basic_string", i32, i32, i32, i32 }
%"class.llvm::OffloadEntriesInfoManager::OffloadEntryInfoTargetRegion" = type { %"class.llvm::OffloadEntriesInfoManager::OffloadEntryInfo.base", ptr }
%"class.llvm::OffloadEntriesInfoManager::OffloadEntryInfo.base" = type <{ %"class.llvm::WeakTrackingVH", i32, i32, i32 }>
%"struct.std::_Rb_tree_iterator" = type { ptr }
%"struct.std::pair.656" = type { %"struct.llvm::TargetRegionEntryInfo", %"class.llvm::OffloadEntriesInfoManager::OffloadEntryInfoTargetRegion" }
%"struct.std::_Rb_tree_node" = type { %"struct.std::_Rb_tree_node_base", %"struct.__gnu_cxx::__aligned_membuf" }
%"struct.__gnu_cxx::__aligned_membuf" = type { [96 x i8] }

; Function Attrs: mustprogress nounwind uwtable
define linkonce_odr hidden noundef ptr @_ZN9__gnu_cxx16__aligned_membufISt4pairIKN4llvm21TargetRegionEntryInfoENS2_25OffloadEntriesInfoManager28OffloadEntryInfoTargetRegionEEE7_M_addrEv(ptr noundef nonnull align 8 dereferenceable(96) %0) #1 comdat align 2 {
  %2 = alloca ptr, align 8
  store ptr %0, ptr %2, align 8
  %3 = load ptr, ptr %2, align 8
  %4 = getelementptr inbounds nuw %"struct.__gnu_cxx::__aligned_membuf", ptr %3, i32 0, i32 0
  ret ptr %4
}

; Function Attrs: mustprogress nounwind uwtable
define linkonce_odr hidden noundef ptr @_ZN9__gnu_cxx16__aligned_membufISt4pairIKN4llvm21TargetRegionEntryInfoENS2_25OffloadEntriesInfoManager28OffloadEntryInfoTargetRegionEEE6_M_ptrEv(ptr noundef nonnull align 8 dereferenceable(96) %0) #1 comdat align 2 {
  %2 = alloca ptr, align 8
  store ptr %0, ptr %2, align 8
  %3 = load ptr, ptr %2, align 8
  %4 = call noundef ptr @_ZN9__gnu_cxx16__aligned_membufISt4pairIKN4llvm21TargetRegionEntryInfoENS2_25OffloadEntriesInfoManager28OffloadEntryInfoTargetRegionEEE7_M_addrEv(ptr noundef nonnull align 8 dereferenceable(96) %3) #2
  ret ptr %4
}

; Function Attrs: mustprogress nounwind uwtable
define linkonce_odr hidden void @_ZNSt17_Rb_tree_iteratorISt4pairIKN4llvm21TargetRegionEntryInfoENS1_25OffloadEntriesInfoManager28OffloadEntryInfoTargetRegionEEEC2EPSt18_Rb_tree_node_base(ptr noundef nonnull align 8 dereferenceable(8) %0, ptr noundef %1) unnamed_addr #1 comdat align 2 {
  %3 = alloca ptr, align 8
  %4 = alloca ptr, align 8
  store ptr %0, ptr %3, align 8
  store ptr %1, ptr %4, align 8
  %5 = load ptr, ptr %3, align 8
  %6 = getelementptr inbounds nuw %"struct.std::_Rb_tree_iterator", ptr %5, i32 0, i32 0
  %7 = load ptr, ptr %4, align 8
  store ptr %7, ptr %6, align 8
  ret void
}

; Function Attrs: mustprogress nounwind uwtable
define linkonce_odr hidden noundef ptr @_ZNSt13_Rb_tree_nodeISt4pairIKN4llvm21TargetRegionEntryInfoENS1_25OffloadEntriesInfoManager28OffloadEntryInfoTargetRegionEEE9_M_valptrEv(ptr noundef nonnull align 8 dereferenceable(128) %0) #1 comdat align 2 {
  %2 = alloca ptr, align 8
  store ptr %0, ptr %2, align 8
  %3 = load ptr, ptr %2, align 8
  %4 = getelementptr inbounds nuw %"struct.std::_Rb_tree_node", ptr %3, i32 0, i32 1
  %5 = call noundef ptr @_ZN9__gnu_cxx16__aligned_membufISt4pairIKN4llvm21TargetRegionEntryInfoENS2_25OffloadEntriesInfoManager28OffloadEntryInfoTargetRegionEEE6_M_ptrEv(ptr noundef nonnull align 8 dereferenceable(96) %4) #2
  ret ptr %5
}

; Function Attrs: mustprogress nounwind uwtable
define linkonce_odr hidden ptr @_ZNSt8_Rb_treeIN4llvm21TargetRegionEntryInfoESt4pairIKS1_NS0_25OffloadEntriesInfoManager28OffloadEntryInfoTargetRegionEESt10_Select1stIS6_ESt4lessIS1_ESaIS6_EE3endEv(ptr noundef nonnull align 8 dereferenceable(48) %0) #1 comdat align 2 {
  %2 = alloca %"struct.std::_Rb_tree_iterator", align 8
  %3 = alloca ptr, align 8
  store ptr %0, ptr %3, align 8
  %4 = load ptr, ptr %3, align 8
  %5 = getelementptr inbounds nuw %"class.std::_Rb_tree.82", ptr %4, i32 0, i32 0
  %6 = getelementptr inbounds i8, ptr %5, i64 8
  %7 = getelementptr inbounds nuw %"struct.std::_Rb_tree_header", ptr %6, i32 0, i32 0
  call void @_ZNSt17_Rb_tree_iteratorISt4pairIKN4llvm21TargetRegionEntryInfoENS1_25OffloadEntriesInfoManager28OffloadEntryInfoTargetRegionEEEC2EPSt18_Rb_tree_node_base(ptr noundef nonnull align 8 dereferenceable(8) %2, ptr noundef %7) #2
  %8 = getelementptr inbounds nuw %"struct.std::_Rb_tree_iterator", ptr %2, i32 0, i32 0
  %9 = load ptr, ptr %8, align 8
  ret ptr %9
}

; Function Attrs: mustprogress nounwind uwtable
define linkonce_odr hidden ptr @_ZNSt8_Rb_treeIN4llvm21TargetRegionEntryInfoESt4pairIKS1_NS0_25OffloadEntriesInfoManager28OffloadEntryInfoTargetRegionEESt10_Select1stIS6_ESt4lessIS1_ESaIS6_EE5beginEv(ptr noundef nonnull align 8 dereferenceable(48) %0) #1 comdat align 2 {
  %2 = alloca %"struct.std::_Rb_tree_iterator", align 8
  %3 = alloca ptr, align 8
  store ptr %0, ptr %3, align 8
  %4 = load ptr, ptr %3, align 8
  %5 = getelementptr inbounds nuw %"class.std::_Rb_tree.82", ptr %4, i32 0, i32 0
  %6 = getelementptr inbounds i8, ptr %5, i64 8
  %7 = getelementptr inbounds nuw %"struct.std::_Rb_tree_header", ptr %6, i32 0, i32 0
  %8 = getelementptr inbounds nuw %"struct.std::_Rb_tree_node_base", ptr %7, i32 0, i32 2
  %9 = load ptr, ptr %8, align 8
  call void @_ZNSt17_Rb_tree_iteratorISt4pairIKN4llvm21TargetRegionEntryInfoENS1_25OffloadEntriesInfoManager28OffloadEntryInfoTargetRegionEEEC2EPSt18_Rb_tree_node_base(ptr noundef nonnull align 8 dereferenceable(8) %2, ptr noundef %9) #2
  %10 = getelementptr inbounds nuw %"struct.std::_Rb_tree_iterator", ptr %2, i32 0, i32 0
  %11 = load ptr, ptr %10, align 8
  ret ptr %11
}

; Function Attrs: mustprogress nounwind uwtable
define linkonce_odr hidden noundef nonnull align 8 dereferenceable(8) ptr @_ZNSt17_Rb_tree_iteratorISt4pairIKN4llvm21TargetRegionEntryInfoENS1_25OffloadEntriesInfoManager28OffloadEntryInfoTargetRegionEEEppEv(ptr noundef nonnull align 8 dereferenceable(8) %0) #1 comdat align 2 {
  %2 = alloca ptr, align 8
  store ptr %0, ptr %2, align 8
  %3 = load ptr, ptr %2, align 8
  %4 = getelementptr inbounds nuw %"struct.std::_Rb_tree_iterator", ptr %3, i32 0, i32 0
  %5 = load ptr, ptr %4, align 8
  %6 = call noundef ptr @_ZSt18_Rb_tree_incrementPSt18_Rb_tree_node_base(ptr noundef %5) #18
  %7 = getelementptr inbounds nuw %"struct.std::_Rb_tree_iterator", ptr %3, i32 0, i32 0
  store ptr %6, ptr %7, align 8
  ret ptr %3
}

; Function Attrs: mustprogress nounwind uwtable
define linkonce_odr hidden void @_ZNK4llvm12function_refIFvRKNS_21TargetRegionEntryInfoERKNS_25OffloadEntriesInfoManager28OffloadEntryInfoTargetRegionEEEclES3_S7_(ptr noundef nonnull align 8 dereferenceable(16) %0, ptr noundef nonnull align 8 dereferenceable(48) %1, ptr noundef nonnull align 8 dereferenceable(48) %2) #1 comdat align 2 {
  %4 = alloca ptr, align 8
  %5 = alloca ptr, align 8
  %6 = alloca ptr, align 8
  store ptr %0, ptr %4, align 8
  store ptr %1, ptr %5, align 8
  store ptr %2, ptr %6, align 8
  %7 = load ptr, ptr %4, align 8
  %8 = getelementptr inbounds nuw %"class.llvm::function_ref.566", ptr %7, i32 0, i32 0
  %9 = load ptr, ptr %8, align 8
  %10 = getelementptr inbounds nuw %"class.llvm::function_ref.566", ptr %7, i32 0, i32 1
  %11 = load i64, ptr %10, align 8
  %12 = load ptr, ptr %5, align 8
  %13 = load ptr, ptr %6, align 8
  call void %9(i64 noundef %11, ptr noundef nonnull align 8 dereferenceable(48) %12, ptr noundef nonnull align 8 dereferenceable(48) %13)
  ret void
}

; Function Attrs: mustprogress nounwind uwtable
define linkonce_odr hidden noundef nonnull align 8 dereferenceable(96) ptr @_ZNKSt17_Rb_tree_iteratorISt4pairIKN4llvm21TargetRegionEntryInfoENS1_25OffloadEntriesInfoManager28OffloadEntryInfoTargetRegionEEEdeEv(ptr noundef nonnull align 8 dereferenceable(8) %0) #1 comdat align 2 {
  %2 = alloca ptr, align 8
  store ptr %0, ptr %2, align 8
  %3 = load ptr, ptr %2, align 8
  %4 = getelementptr inbounds nuw %"struct.std::_Rb_tree_iterator", ptr %3, i32 0, i32 0
  %5 = load ptr, ptr %4, align 8
  %6 = call noundef ptr @_ZNSt13_Rb_tree_nodeISt4pairIKN4llvm21TargetRegionEntryInfoENS1_25OffloadEntriesInfoManager28OffloadEntryInfoTargetRegionEEE9_M_valptrEv(ptr noundef nonnull align 8 dereferenceable(128) %5)
  ret ptr %6
}

; Function Attrs: mustprogress nounwind uwtable
define linkonce_odr noundef zeroext i1 @_ZStneRKSt17_Rb_tree_iteratorISt4pairIKN4llvm21TargetRegionEntryInfoENS1_25OffloadEntriesInfoManager28OffloadEntryInfoTargetRegionEEES9_(ptr noundef nonnull align 8 dereferenceable(8) %0, ptr noundef nonnull align 8 dereferenceable(8) %1) #1 comdat {
  %3 = alloca ptr, align 8
  %4 = alloca ptr, align 8
  store ptr %0, ptr %3, align 8
  store ptr %1, ptr %4, align 8
  %5 = load ptr, ptr %3, align 8
  %6 = getelementptr inbounds nuw %"struct.std::_Rb_tree_iterator", ptr %5, i32 0, i32 0
  %7 = load ptr, ptr %6, align 8
  %8 = load ptr, ptr %4, align 8
  %9 = getelementptr inbounds nuw %"struct.std::_Rb_tree_iterator", ptr %8, i32 0, i32 0
  %10 = load ptr, ptr %9, align 8
  %11 = icmp ne ptr %7, %10
  ret i1 %11
}

; Function Attrs: mustprogress nounwind uwtable
define linkonce_odr hidden ptr @_ZNSt3mapIN4llvm21TargetRegionEntryInfoENS0_25OffloadEntriesInfoManager28OffloadEntryInfoTargetRegionESt4lessIS1_ESaISt4pairIKS1_S3_EEE3endEv(ptr noundef nonnull align 8 dereferenceable(48) %0) #1 comdat align 2 {
  %2 = alloca %"struct.std::_Rb_tree_iterator", align 8
  %3 = alloca ptr, align 8
  store ptr %0, ptr %3, align 8
  %4 = load ptr, ptr %3, align 8
  %5 = getelementptr inbounds nuw %"class.std::map.81", ptr %4, i32 0, i32 0
  %6 = call ptr @_ZNSt8_Rb_treeIN4llvm21TargetRegionEntryInfoESt4pairIKS1_NS0_25OffloadEntriesInfoManager28OffloadEntryInfoTargetRegionEESt10_Select1stIS6_ESt4lessIS1_ESaIS6_EE3endEv(ptr noundef nonnull align 8 dereferenceable(48) %5) #2
  %7 = getelementptr inbounds nuw %"struct.std::_Rb_tree_iterator", ptr %2, i32 0, i32 0
  store ptr %6, ptr %7, align 8
  %8 = getelementptr inbounds nuw %"struct.std::_Rb_tree_iterator", ptr %2, i32 0, i32 0
  %9 = load ptr, ptr %8, align 8
  ret ptr %9
}

; Function Attrs: mustprogress nounwind uwtable
define linkonce_odr hidden ptr @_ZNSt3mapIN4llvm21TargetRegionEntryInfoENS0_25OffloadEntriesInfoManager28OffloadEntryInfoTargetRegionESt4lessIS1_ESaISt4pairIKS1_S3_EEE5beginEv(ptr noundef nonnull align 8 dereferenceable(48) %0) #1 comdat align 2 {
  %2 = alloca %"struct.std::_Rb_tree_iterator", align 8
  %3 = alloca ptr, align 8
  store ptr %0, ptr %3, align 8
  %4 = load ptr, ptr %3, align 8
  %5 = getelementptr inbounds nuw %"class.std::map.81", ptr %4, i32 0, i32 0
  %6 = call ptr @_ZNSt8_Rb_treeIN4llvm21TargetRegionEntryInfoESt4pairIKS1_NS0_25OffloadEntriesInfoManager28OffloadEntryInfoTargetRegionEESt10_Select1stIS6_ESt4lessIS1_ESaIS6_EE5beginEv(ptr noundef nonnull align 8 dereferenceable(48) %5) #2
  %7 = getelementptr inbounds nuw %"struct.std::_Rb_tree_iterator", ptr %2, i32 0, i32 0
  store ptr %6, ptr %7, align 8
  %8 = getelementptr inbounds nuw %"struct.std::_Rb_tree_iterator", ptr %2, i32 0, i32 0
  %9 = load ptr, ptr %8, align 8
  ret ptr %9
}

; Function Attrs: mustprogress nounwind uwtable
define dso_local void @_ZN4llvm25OffloadEntriesInfoManager28actOnTargetRegionEntriesInfoERKNS_12function_refIFvRKNS_21TargetRegionEntryInfoERKNS0_28OffloadEntryInfoTargetRegionEEEE(ptr noundef nonnull align 8 dereferenceable(136) %0, ptr noundef nonnull align 8 dereferenceable(16) %1) #1 align 2 {
  %3 = alloca ptr, align 8
  %4 = alloca ptr, align 8
  %5 = alloca ptr, align 8
  %6 = alloca %"struct.std::_Rb_tree_iterator", align 8
  %7 = alloca %"struct.std::_Rb_tree_iterator", align 8
  %8 = alloca ptr, align 8
  store ptr %0, ptr %3, align 8
  store ptr %1, ptr %4, align 8
  %9 = load ptr, ptr %3, align 8
  %10 = getelementptr inbounds nuw %"class.llvm::OffloadEntriesInfoManager", ptr %9, i32 0, i32 3
  store ptr %10, ptr %5, align 8
  %11 = load ptr, ptr %5, align 8
  %12 = call ptr @_ZNSt3mapIN4llvm21TargetRegionEntryInfoENS0_25OffloadEntriesInfoManager28OffloadEntryInfoTargetRegionESt4lessIS1_ESaISt4pairIKS1_S3_EEE5beginEv(ptr noundef nonnull align 8 dereferenceable(48) %11) #2
  %13 = getelementptr inbounds nuw %"struct.std::_Rb_tree_iterator", ptr %6, i32 0, i32 0
  store ptr %12, ptr %13, align 8
  %14 = load ptr, ptr %5, align 8
  %15 = call ptr @_ZNSt3mapIN4llvm21TargetRegionEntryInfoENS0_25OffloadEntriesInfoManager28OffloadEntryInfoTargetRegionESt4lessIS1_ESaISt4pairIKS1_S3_EEE3endEv(ptr noundef nonnull align 8 dereferenceable(48) %14) #2
  %16 = getelementptr inbounds nuw %"struct.std::_Rb_tree_iterator", ptr %7, i32 0, i32 0
  store ptr %15, ptr %16, align 8
  br label %17

17:                                               ; preds = %26, %2
  %18 = call noundef zeroext i1 @_ZStneRKSt17_Rb_tree_iteratorISt4pairIKN4llvm21TargetRegionEntryInfoENS1_25OffloadEntriesInfoManager28OffloadEntryInfoTargetRegionEEES9_(ptr noundef nonnull align 8 dereferenceable(8) %6, ptr noundef nonnull align 8 dereferenceable(8) %7) #2
  br i1 %18, label %19, label %28

19:                                               ; preds = %17
  %20 = call noundef nonnull align 8 dereferenceable(96) ptr @_ZNKSt17_Rb_tree_iteratorISt4pairIKN4llvm21TargetRegionEntryInfoENS1_25OffloadEntriesInfoManager28OffloadEntryInfoTargetRegionEEEdeEv(ptr noundef nonnull align 8 dereferenceable(8) %6) #2
  store ptr %20, ptr %8, align 8
  %21 = load ptr, ptr %4, align 8
  %22 = load ptr, ptr %8, align 8
  %23 = getelementptr inbounds nuw %"struct.std::pair.656", ptr %22, i32 0, i32 0
  %24 = load ptr, ptr %8, align 8
  %25 = getelementptr inbounds nuw %"struct.std::pair.656", ptr %24, i32 0, i32 1
  call void @_ZNK4llvm12function_refIFvRKNS_21TargetRegionEntryInfoERKNS_25OffloadEntriesInfoManager28OffloadEntryInfoTargetRegionEEEclES3_S7_(ptr noundef nonnull align 8 dereferenceable(16) %21, ptr noundef nonnull align 8 dereferenceable(48) %23, ptr noundef nonnull align 8 dereferenceable(48) %25)
  br label %26

26:                                               ; preds = %19
  %27 = call noundef nonnull align 8 dereferenceable(8) ptr @_ZNSt17_Rb_tree_iteratorISt4pairIKN4llvm21TargetRegionEntryInfoENS1_25OffloadEntriesInfoManager28OffloadEntryInfoTargetRegionEEEppEv(ptr noundef nonnull align 8 dereferenceable(8) %6) #2
  br label %17

28:                                               ; preds = %17
  ret void
}