; Function Attrs: mustprogress nounwind uwtable
define dso_local void @_ZN4llvm25OffloadEntriesInfoManager28actOnTargetRegionEntriesInfoERKNS_12function_refIFvRKNS_21TargetRegionEntryInfoERKNS0_28OffloadEntryInfoTargetRegionEEEE(ptr noundef nonnull readonly align 8 dereferenceable(136) %0, ptr noundef nonnull readonly align 8 captures(none) dereferenceable(16) %1) local_unnamed_addr #0 align 2 {
  %3 = getelementptr inbounds nuw i8, ptr %0, i64 88
  %4 = load ptr, ptr %3, align 8
  %5 = getelementptr inbounds nuw i8, ptr %0, i64 72
  %.not9 = icmp eq ptr %4, %5
  br i1 %.not9, label %._crit_edge, label %.lr.ph

.lr.ph:                                           ; preds = %2
  %6 = getelementptr inbounds nuw i8, ptr %1, i64 8
  br label %7

7:                                                ; preds = %.lr.ph, %7
  %.sroa.06.010 = phi ptr [ %4, %.lr.ph ], [ %12, %7 ]
  %8 = getelementptr inbounds nuw i8, ptr %.sroa.06.010, i64 32
  %9 = getelementptr inbounds nuw i8, ptr %.sroa.06.010, i64 80
  %10 = load ptr, ptr %1, align 8
  %11 = load i64, ptr %6, align 8
  tail call void %10(i64 noundef %11, ptr noundef nonnull align 8 dereferenceable(48) %8, ptr noundef nonnull align 8 dereferenceable(48) %9) #26
  %12 = tail call noundef ptr @_ZSt18_Rb_tree_incrementPSt18_Rb_tree_node_base(ptr noundef %.sroa.06.010) #29
  %.not = icmp eq ptr %12, %5
  br i1 %.not, label %._crit_edge, label %7

._crit_edge:                                      ; preds = %7, %2
  ret void
}